target datalayout = "e-m:e-p270:32:32-p271:32:32-p272:64:64-i64:64-i128:128-f80:128-n8:16:32:64-S128"
target triple = "x86_64-pc-linux-gnu"

%struct._zend_array = type { %struct._zend_refcounted_h, %union.anon.0, i32, %union.anon.1, i32, i32, i32, i32, i64, ptr }
%struct._zend_refcounted_h = type { i32, %union.anon }
%union.anon = type { i32 }
%union.anon.0 = type { i32 }
%union.anon.1 = type { ptr }
%struct._zend_string = type { %struct._zend_refcounted_h, i64, i64, [1 x i8] }
%struct._zend_op_array = type { i8, [3 x i8], i32, ptr, ptr, ptr, i32, i32, ptr, ptr, ptr, ptr, i32, i32, i32, i32, ptr, ptr, ptr, ptr, ptr, i32, i32, ptr, ptr, ptr, i32, i32, i32, i32, ptr, ptr, [6 x ptr] }
%struct._zend_persistent_script = type { %struct._zend_script, i64, i32, i64, i8, i8, i8, i32, i32, ptr, ptr, ptr, i64, %struct.zend_persistent_script_dynamic_members }
%struct._zend_script = type { ptr, %struct._zend_op_array, %struct._zend_array, %struct._zend_array }
%struct.zend_persistent_script_dynamic_members = type { i64, i64, i32, i64 }
%struct._zend_accel_shared_globals = type { i64, i64, i64, i64, i64, i64, %struct._zend_accel_hash, i64, i64, i64, i64, i8, i8, i32, i8, i8, i8, ptr, ptr, [2 x i32], ptr, ptr, %struct._zend_string_table }
%struct._zend_accel_hash = type { ptr, ptr, i32, i32, i32 }
%struct._zend_string_table = type { i32, i32, ptr, ptr, ptr, ptr }
%struct.zend_type = type { ptr, i32 }
%struct.zend_type_list = type { i32, [1 x %struct.zend_type] }

@accel_shared_globals = external global ptr, align 8

; Function Attrs: nounwind uwtable
define internal void @zend_file_cache_serialize_type(ptr noundef %0, ptr noundef %1, ptr noundef %2, ptr noundef %3) #0 {
  %5 = alloca ptr, align 8
  %6 = alloca ptr, align 8
  %7 = alloca ptr, align 8
  %8 = alloca ptr, align 8
  %9 = alloca ptr, align 8
  %10 = alloca ptr, align 8
  %11 = alloca ptr, align 8
  %12 = alloca ptr, align 8
  %13 = alloca ptr, align 8
  store ptr %0, ptr %5, align 8
  store ptr %1, ptr %6, align 8
  store ptr %2, ptr %7, align 8
  store ptr %3, ptr %8, align 8
  %14 = load ptr, ptr %5, align 8
  %15 = getelementptr inbounds %struct.zend_type, ptr %14, i32 0, i32 1
  %16 = load i32, ptr %15, align 8
  %17 = and i32 %16, 4194304
  %18 = icmp ne i32 %17, 0
  br i1 %18, label %19, label %114

19:                                               ; preds = %4
  %20 = load ptr, ptr %5, align 8
  %21 = getelementptr inbounds %struct.zend_type, ptr %20, i32 0, i32 0
  %22 = load ptr, ptr %21, align 8
  store ptr %22, ptr %9, align 8
  br label %23

23:                                               ; preds = %19
  %24 = load ptr, ptr %9, align 8
  %25 = icmp ne ptr %24, null
  br i1 %25, label %26, label %68

26:                                               ; preds = %23
  %27 = load ptr, ptr %9, align 8
  %28 = load ptr, ptr %6, align 8
  %29 = getelementptr inbounds %struct._zend_persistent_script, ptr %28, i32 0, i32 11
  %30 = load ptr, ptr %29, align 8
  %31 = icmp uge ptr %27, %30
  br i1 %31, label %32, label %42

32:                                               ; preds = %26
  %33 = load ptr, ptr %9, align 8
  %34 = load ptr, ptr %6, align 8
  %35 = getelementptr inbounds %struct._zend_persistent_script, ptr %34, i32 0, i32 11
  %36 = load ptr, ptr %35, align 8
  %37 = load ptr, ptr %6, align 8
  %38 = getelementptr inbounds %struct._zend_persistent_script, ptr %37, i32 0, i32 12
  %39 = load i64, ptr %38, align 8
  %40 = getelementptr inbounds i8, ptr %36, i64 %39
  %41 = icmp ule ptr %33, %40
  br i1 %41, label %58, label %42

42:                                               ; preds = %32, %26
  %43 = load ptr, ptr %9, align 8
  %44 = load ptr, ptr @accel_shared_globals, align 8
  %45 = getelementptr inbounds %struct._zend_accel_shared_globals, ptr %44, i32 0, i32 22
  %46 = getelementptr inbounds %struct._zend_string_table, ptr %45, i32 0, i32 2
  %47 = load ptr, ptr %46, align 8
  %48 = icmp uge ptr %43, %47
  br i1 %48, label %49, label %56

49:                                               ; preds = %42
  %50 = load ptr, ptr %9, align 8
  %51 = load ptr, ptr @accel_shared_globals, align 8
  %52 = getelementptr inbounds %struct._zend_accel_shared_globals, ptr %51, i32 0, i32 22
  %53 = getelementptr inbounds %struct._zend_string_table, ptr %52, i32 0, i32 3
  %54 = load ptr, ptr %53, align 8
  %55 = icmp ult ptr %50, %54
  br label %56

56:                                               ; preds = %49, %42
  %57 = phi i1 [ false, %42 ], [ %55, %49 ]
  br label %58

58:                                               ; preds = %56, %32
  %59 = phi i1 [ true, %32 ], [ %57, %56 ]
  call void @llvm.assume(i1 %59)
  %60 = load ptr, ptr %9, align 8
  %61 = load ptr, ptr %6, align 8
  %62 = getelementptr inbounds %struct._zend_persistent_script, ptr %61, i32 0, i32 11
  %63 = load ptr, ptr %62, align 8
  %64 = ptrtoint ptr %60 to i64
  %65 = ptrtoint ptr %63 to i64
  %66 = sub i64 %64, %65
  %67 = inttoptr i64 %66 to ptr
  store ptr %67, ptr %9, align 8
  br label %68

68:                                               ; preds = %58, %23
  br label %69

69:                                               ; preds = %68
  %70 = load ptr, ptr %9, align 8
  %71 = load ptr, ptr %5, align 8
  %72 = getelementptr inbounds %struct.zend_type, ptr %71, i32 0, i32 0
  store ptr %70, ptr %72, align 8
  br label %73

73:                                               ; preds = %69
  %74 = load ptr, ptr %9, align 8
  %75 = icmp ne ptr %74, null
  br i1 %75, label %76, label %87

76:                                               ; preds = %73
  %77 = load ptr, ptr %9, align 8
  %78 = load ptr, ptr %6, align 8
  %79 = getelementptr inbounds %struct._zend_persistent_script, ptr %78, i32 0, i32 12
  %80 = load i64, ptr %79, align 8
  %81 = inttoptr i64 %80 to ptr
  %82 = icmp ule ptr %77, %81
  call void @llvm.assume(i1 %82)
  %83 = load ptr, ptr %8, align 8
  %84 = load ptr, ptr %9, align 8
  %85 = ptrtoint ptr %84 to i64
  %86 = getelementptr inbounds i8, ptr %83, i64 %85
  store ptr %86, ptr %9, align 8
  br label %87

87:                                               ; preds = %76, %73
  br label %88

88:                                               ; preds = %87
  br label %89

89:                                               ; preds = %88
  %90 = load ptr, ptr %9, align 8
  %91 = getelementptr inbounds %struct.zend_type_list, ptr %90, i32 0, i32 1
  %92 = getelementptr inbounds [1 x %struct.zend_type], ptr %91, i64 0, i64 0
  store ptr %92, ptr %11, align 8
  %93 = load ptr, ptr %11, align 8
  %94 = load ptr, ptr %9, align 8
  %95 = getelementptr inbounds %struct.zend_type_list, ptr %94, i32 0, i32 0
  %96 = load i32, ptr %95, align 8
  %97 = zext i32 %96 to i64
  %98 = getelementptr inbounds %struct.zend_type, ptr %93, i64 %97
  store ptr %98, ptr %12, align 8
  br label %99

99:                                               ; preds = %109, %89
  %100 = load ptr, ptr %11, align 8
  %101 = load ptr, ptr %12, align 8
  %102 = icmp ult ptr %100, %101
  br i1 %102, label %103, label %112

103:                                              ; preds = %99
  %104 = load ptr, ptr %11, align 8
  store ptr %104, ptr %10, align 8
  %105 = load ptr, ptr %10, align 8
  %106 = load ptr, ptr %6, align 8
  %107 = load ptr, ptr %7, align 8
  %108 = load ptr, ptr %8, align 8
  call void @zend_file_cache_serialize_type(ptr noundef %105, ptr noundef %106, ptr noundef %107, ptr noundef %108)
  br label %109

109:                                              ; preds = %103
  %110 = load ptr, ptr %11, align 8
  %111 = getelementptr inbounds %struct.zend_type, ptr %110, i32 1
  store ptr %111, ptr %11, align 8
  br label %99

112:                                              ; preds = %99
  br label %113

113:                                              ; preds = %112
  br label %219

114:                                              ; preds = %4
  %115 = load ptr, ptr %5, align 8
  %116 = getelementptr inbounds %struct.zend_type, ptr %115, i32 0, i32 1
  %117 = load i32, ptr %116, align 8
  %118 = and i32 %117, 16777216
  %119 = icmp ne i32 %118, 0
  br i1 %119, label %120, label %218

120:                                              ; preds = %114
  %121 = load ptr, ptr %5, align 8
  %122 = getelementptr inbounds %struct.zend_type, ptr %121, i32 0, i32 0
  %123 = load ptr, ptr %122, align 8
  store ptr %123, ptr %13, align 8
  br label %124

124:                                              ; preds = %120
  %125 = load ptr, ptr %13, align 8
  %126 = icmp ne ptr %125, null
  br i1 %126, label %127, label %213

127:                                              ; preds = %124
  %128 = load ptr, ptr %13, align 8
  %129 = load ptr, ptr @accel_shared_globals, align 8
  %130 = getelementptr inbounds %struct._zend_accel_shared_globals, ptr %129, i32 0, i32 22
  %131 = getelementptr inbounds %struct._zend_string_table, ptr %130, i32 0, i32 2
  %132 = load ptr, ptr %131, align 8
  %133 = icmp uge ptr %128, %132
  br i1 %133, label %134, label %145

134:                                              ; preds = %127
  %135 = load ptr, ptr %13, align 8
  %136 = load ptr, ptr @accel_shared_globals, align 8
  %137 = getelementptr inbounds %struct._zend_accel_shared_globals, ptr %136, i32 0, i32 22
  %138 = getelementptr inbounds %struct._zend_string_table, ptr %137, i32 0, i32 3
  %139 = load ptr, ptr %138, align 8
  %140 = icmp ult ptr %135, %139
  br i1 %140, label %141, label %145

141:                                              ; preds = %134
  %142 = load ptr, ptr %13, align 8
  %143 = load ptr, ptr %7, align 8
  %144 = call ptr @zend_file_cache_serialize_interned(ptr noundef %142, ptr noundef %143)
  store ptr %144, ptr %13, align 8
  br label %212

145:                                              ; preds = %134, %127
  %146 = load ptr, ptr %13, align 8
  %147 = load ptr, ptr %6, align 8
  %148 = getelementptr inbounds %struct._zend_persistent_script, ptr %147, i32 0, i32 11
  %149 = load ptr, ptr %148, align 8
  %150 = icmp uge ptr %146, %149
  br i1 %150, label %151, label %161

151:                                              ; preds = %145
  %152 = load ptr, ptr %13, align 8
  %153 = load ptr, ptr %6, align 8
  %154 = getelementptr inbounds %struct._zend_persistent_script, ptr %153, i32 0, i32 11
  %155 = load ptr, ptr %154, align 8
  %156 = load ptr, ptr %6, align 8
  %157 = getelementptr inbounds %struct._zend_persistent_script, ptr %156, i32 0, i32 12
  %158 = load i64, ptr %157, align 8
  %159 = getelementptr inbounds i8, ptr %155, i64 %158
  %160 = icmp ule ptr %152, %159
  br i1 %160, label %177, label %161

161:                                              ; preds = %151, %145
  %162 = load ptr, ptr %13, align 8
  %163 = load ptr, ptr @accel_shared_globals, align 8
  %164 = getelementptr inbounds %struct._zend_accel_shared_globals, ptr %163, i32 0, i32 22
  %165 = getelementptr inbounds %struct._zend_string_table, ptr %164, i32 0, i32 2
  %166 = load ptr, ptr %165, align 8
  %167 = icmp uge ptr %162, %166
  br i1 %167, label %168, label %175

168:                                              ; preds = %161
  %169 = load ptr, ptr %13, align 8
  %170 = load ptr, ptr @accel_shared_globals, align 8
  %171 = getelementptr inbounds %struct._zend_accel_shared_globals, ptr %170, i32 0, i32 22
  %172 = getelementptr inbounds %struct._zend_string_table, ptr %171, i32 0, i32 3
  %173 = load ptr, ptr %172, align 8
  %174 = icmp ult ptr %169, %173
  br label %175

175:                                              ; preds = %168, %161
  %176 = phi i1 [ false, %161 ], [ %174, %168 ]
  br label %177

177:                                              ; preds = %175, %151
  %178 = phi i1 [ true, %151 ], [ %176, %175 ]
  call void @llvm.assume(i1 %178)
  %179 = load ptr, ptr %6, align 8
  %180 = getelementptr inbounds %struct._zend_persistent_script, ptr %179, i32 0, i32 4
  %181 = load i8, ptr %180, align 8
  %182 = trunc i8 %181 to i1
  %183 = xor i1 %182, true
  %184 = xor i1 %183, true
  %185 = zext i1 %184 to i32
  %186 = sext i32 %185 to i64
  %187 = icmp ne i64 %186, 0
  br i1 %187, label %188, label %203

188:                                              ; preds = %177
  br label %189

189:                                              ; preds = %188
  %190 = load ptr, ptr %13, align 8
  %191 = getelementptr inbounds %struct._zend_string, ptr %190, i32 0, i32 0
  %192 = getelementptr inbounds %struct._zend_refcounted_h, ptr %191, i32 0, i32 1
  %193 = load i32, ptr %192, align 4
  %194 = or i32 %193, 64
  store i32 %194, ptr %192, align 4
  br label %195

195:                                              ; preds = %189
  br label %196

196:                                              ; preds = %195
  %197 = load ptr, ptr %13, align 8
  %198 = getelementptr inbounds %struct._zend_string, ptr %197, i32 0, i32 0
  %199 = getelementptr inbounds %struct._zend_refcounted_h, ptr %198, i32 0, i32 1
  %200 = load i32, ptr %199, align 4
  %201 = and i32 %200, -257
  store i32 %201, ptr %199, align 4
  br label %202

202:                                              ; preds = %196
  br label %203

203:                                              ; preds = %202, %177
  %204 = load ptr, ptr %13, align 8
  %205 = load ptr, ptr %6, align 8
  %206 = getelementptr inbounds %struct._zend_persistent_script, ptr %205, i32 0, i32 11
  %207 = load ptr, ptr %206, align 8
  %208 = ptrtoint ptr %204 to i64
  %209 = ptrtoint ptr %207 to i64
  %210 = sub i64 %208, %209
  %211 = inttoptr i64 %210 to ptr
  store ptr %211, ptr %13, align 8
  br label %212

212:                                              ; preds = %203, %141
  br label %213

213:                                              ; preds = %212, %124
  br label %214

214:                                              ; preds = %213
  %215 = load ptr, ptr %13, align 8
  %216 = load ptr, ptr %5, align 8
  %217 = getelementptr inbounds %struct.zend_type, ptr %216, i32 0, i32 0
  store ptr %215, ptr %217, align 8
  br label %218

218:                                              ; preds = %214, %114
  br label %219

219:                                              ; preds = %218, %113
  ret void
}