; Function Attrs: nounwind uwtable
define internal fastcc void @zend_file_cache_serialize_type(ptr nocapture noundef %0, ptr nocapture noundef readonly %1, ptr nocapture noundef %2, ptr noundef %3) unnamed_addr #0 {
  %5 = getelementptr inbounds i8, ptr %0, i64 8
  %6 = load i32, ptr %5, align 8
  %7 = and i32 %6, 4194304
  %.not = icmp eq i32 %7, 0
  br i1 %.not, label %36, label %8

8:                                                ; preds = %4
  %9 = load ptr, ptr %0, align 8
  %.not66 = icmp eq ptr %9, null
  br i1 %.not66, label %.thread, label %10

10:                                               ; preds = %8
  %11 = getelementptr inbounds i8, ptr %1, i64 416
  %12 = load ptr, ptr %11, align 8
  %.not67 = icmp ult ptr %9, %12
  br i1 %.not67, label %17, label %13

13:                                               ; preds = %10
  %14 = getelementptr inbounds i8, ptr %1, i64 424
  %15 = load i64, ptr %14, align 8
  %16 = getelementptr inbounds i8, ptr %12, i64 %15
  %.not68 = icmp ugt ptr %9, %16
  br i1 %.not68, label %17, label %25

17:                                               ; preds = %13, %10
  %18 = load ptr, ptr @accel_shared_globals, align 8
  %19 = getelementptr inbounds i8, ptr %18, i64 176
  %20 = load ptr, ptr %19, align 8
  %.not69 = icmp ult ptr %9, %20
  br i1 %.not69, label %25, label %21

21:                                               ; preds = %17
  %22 = getelementptr inbounds i8, ptr %18, i64 184
  %23 = load ptr, ptr %22, align 8
  %24 = icmp ult ptr %9, %23
  br label %25

25:                                               ; preds = %13, %21, %17
  %26 = phi i1 [ true, %13 ], [ false, %17 ], [ %24, %21 ]
  tail call void @llvm.assume(i1 %26)
  %27 = ptrtoint ptr %9 to i64
  %28 = ptrtoint ptr %12 to i64
  %29 = sub i64 %27, %28
  %30 = inttoptr i64 %29 to ptr
  store ptr %30, ptr %0, align 8
  %.not70 = icmp eq ptr %9, %12
  %31 = getelementptr inbounds i8, ptr %3, i64 %29
  %spec.select = select i1 %.not70, ptr null, ptr %31
  br label %.thread

.thread:                                          ; preds = %8, %25
  %.1 = phi ptr [ %spec.select, %25 ], [ null, %8 ]
  %32 = load i32, ptr %.1, align 8
  %33 = zext i32 %32 to i64
  %.idx = shl nuw nsw i64 %33, 4
  %.add = or disjoint i64 %.idx, 8
  %.ptr74 = getelementptr inbounds i8, ptr %.1, i64 %.add
  %.not75 = icmp eq i32 %32, 0
  br i1 %.not75, label %.loopexit, label %.lr.ph.preheader

.lr.ph.preheader:                                 ; preds = %.thread
  %.ptr = getelementptr inbounds i8, ptr %.1, i64 8
  br label %.lr.ph

.lr.ph:                                           ; preds = %.lr.ph.preheader, %.lr.ph
  %.05273 = phi ptr [ %34, %.lr.ph ], [ %.ptr, %.lr.ph.preheader ]
  tail call fastcc void @zend_file_cache_serialize_type(ptr noundef nonnull %.05273, ptr noundef %1, ptr noundef %2, ptr noundef %3)
  %34 = getelementptr inbounds i8, ptr %.05273, i64 16
  %35 = icmp ult ptr %34, %.ptr74
  br i1 %35, label %.lr.ph, label %.loopexit

36:                                               ; preds = %4
  %37 = and i32 %6, 16777216
  %.not59 = icmp eq i32 %37, 0
  br i1 %.not59, label %.loopexit, label %38

38:                                               ; preds = %36
  %39 = load ptr, ptr %0, align 8
  %.not60 = icmp eq ptr %39, null
  br i1 %.not60, label %84, label %40

40:                                               ; preds = %38
  %41 = load ptr, ptr @accel_shared_globals, align 8
  %42 = getelementptr inbounds i8, ptr %41, i64 176
  %43 = load ptr, ptr %42, align 8
  %.not61 = icmp ult ptr %39, %43
  br i1 %.not61, label %50, label %44

44:                                               ; preds = %40
  %45 = getelementptr inbounds i8, ptr %41, i64 184
  %46 = load ptr, ptr %45, align 8
  %47 = icmp ult ptr %39, %46
  br i1 %47, label %48, label %.thread76

48:                                               ; preds = %44
  %49 = tail call fastcc ptr @zend_file_cache_serialize_interned(ptr noundef nonnull %39, ptr noundef %2)
  br label %84

50:                                               ; preds = %40
  %51 = getelementptr inbounds i8, ptr %1, i64 416
  %52 = load ptr, ptr %51, align 8
  %.not62 = icmp ult ptr %39, %52
  br i1 %.not62, label %66, label %55

.thread76:                                        ; preds = %44
  %53 = getelementptr inbounds i8, ptr %1, i64 416
  %54 = load ptr, ptr %53, align 8
  %.not6277 = icmp ult ptr %39, %54
  br i1 %.not6277, label %.thread78, label %55

55:                                               ; preds = %.thread76, %50
  %56 = phi ptr [ %54, %.thread76 ], [ %52, %50 ]
  %57 = phi ptr [ %53, %.thread76 ], [ %51, %50 ]
  %58 = getelementptr inbounds i8, ptr %1, i64 424
  %59 = load i64, ptr %58, align 8
  %60 = getelementptr inbounds i8, ptr %56, i64 %59
  %.not63 = icmp ule ptr %39, %60
  %brmerge = or i1 %.not61, %.not63
  br i1 %brmerge, label %66, label %.thread78

.thread78:                                        ; preds = %.thread76, %55
  %61 = phi ptr [ %56, %55 ], [ %54, %.thread76 ]
  %62 = phi ptr [ %57, %55 ], [ %53, %.thread76 ]
  %63 = getelementptr inbounds i8, ptr %41, i64 184
  %64 = load ptr, ptr %63, align 8
  %65 = icmp ult ptr %39, %64
  br label %66

66:                                               ; preds = %50, %55, %.thread78
  %67 = phi ptr [ %56, %55 ], [ %61, %.thread78 ], [ %52, %50 ]
  %68 = phi ptr [ %57, %55 ], [ %62, %.thread78 ], [ %51, %50 ]
  %69 = phi i1 [ %.not63, %55 ], [ %65, %.thread78 ], [ false, %50 ]
  tail call void @llvm.assume(i1 %69)
  %70 = getelementptr inbounds i8, ptr %1, i64 384
  %71 = load i8, ptr %70, align 8
  %72 = and i8 %71, 1
  %.not65 = icmp eq i8 %72, 0
  br i1 %.not65, label %78, label %73

73:                                               ; preds = %66
  %74 = getelementptr inbounds i8, ptr %39, i64 4
  %75 = load i32, ptr %74, align 4
  %76 = and i32 %75, -321
  %77 = or disjoint i32 %76, 64
  store i32 %77, ptr %74, align 4
  %.pre = load ptr, ptr %68, align 8
  br label %78

78:                                               ; preds = %73, %66
  %79 = phi ptr [ %.pre, %73 ], [ %67, %66 ]
  %80 = ptrtoint ptr %39 to i64
  %81 = ptrtoint ptr %79 to i64
  %82 = sub i64 %80, %81
  %83 = inttoptr i64 %82 to ptr
  br label %84

84:                                               ; preds = %38, %78, %48
  %.0 = phi ptr [ %49, %48 ], [ %83, %78 ], [ null, %38 ]
  store ptr %.0, ptr %0, align 8
  br label %.loopexit

.loopexit:                                        ; preds = %.lr.ph, %.thread, %36, %84
  ret void
}